target datalayout = "e-m:e-p270:32:32-p271:32:32-p272:64:64-i64:64-i128:128-f80:128-n8:16:32:64-S128"
target triple = "x86_64-pc-linux-gnu"

%struct._xml_ns_t = type { ptr, ptr, i32, i32, i32, ptr, ptr, ptr }
%struct._GPtrArray = type { ptr, i32 }

; Function Attrs: null_pointer_is_valid sspstrong uwtable
define internal ptr @copy_attributes_hash(ptr noundef %0) #3 {
  %2 = alloca ptr, align 8
  %3 = alloca ptr, align 8
  store ptr %0, ptr %2, align 8
  call void @llvm.lifetime.start.p0(i64 8, ptr %3) #10
  %4 = call ptr @wmem_epan_scope()
  %5 = call noalias ptr @wmem_map_new(ptr noundef %4, ptr noundef @g_str_hash, ptr noundef @g_str_equal)
  store ptr %5, ptr %3, align 8
  %6 = load ptr, ptr %2, align 8
  %7 = load ptr, ptr %3, align 8
  call void @wmem_map_foreach(ptr noundef %6, ptr noundef @copy_attrib_item, ptr noundef %7)
  %8 = load ptr, ptr %3, align 8
  call void @llvm.lifetime.end.p0(i64 8, ptr %3) #10
  ret ptr %8
}

; Function Attrs: null_pointer_is_valid sspstrong uwtable
define internal ptr @duplicate_element(ptr noundef %0) #3 {
  %2 = alloca ptr, align 8
  %3 = alloca ptr, align 8
  %4 = alloca i32, align 4
  store ptr %0, ptr %2, align 8
  call void @llvm.lifetime.start.p0(i64 8, ptr %3) #10
  %5 = call ptr @wmem_epan_scope()
  %6 = call noalias ptr @wmem_alloc(ptr noundef %5, i64 noundef 56) #12
  store ptr %6, ptr %3, align 8
  call void @llvm.lifetime.start.p0(i64 4, ptr %4) #10
  %7 = call ptr @wmem_epan_scope()
  %8 = load ptr, ptr %2, align 8
  %9 = getelementptr inbounds nuw %struct._xml_ns_t, ptr %8, i32 0, i32 0
  %10 = load ptr, ptr %9, align 8
  %11 = call noalias ptr @wmem_strdup(ptr noundef %7, ptr noundef %10)
  %12 = load ptr, ptr %3, align 8
  %13 = getelementptr inbounds nuw %struct._xml_ns_t, ptr %12, i32 0, i32 0
  store ptr %11, ptr %13, align 8
  %14 = load ptr, ptr %3, align 8
  %15 = getelementptr inbounds nuw %struct._xml_ns_t, ptr %14, i32 0, i32 2
  store i32 -1, ptr %15, align 8
  %16 = load ptr, ptr %3, align 8
  %17 = getelementptr inbounds nuw %struct._xml_ns_t, ptr %16, i32 0, i32 3
  store i32 -1, ptr %17, align 4
  %18 = load ptr, ptr %3, align 8
  %19 = getelementptr inbounds nuw %struct._xml_ns_t, ptr %18, i32 0, i32 4
  store i32 -1, ptr %19, align 8
  %20 = load ptr, ptr %2, align 8
  %21 = getelementptr inbounds nuw %struct._xml_ns_t, ptr %20, i32 0, i32 5
  %22 = load ptr, ptr %21, align 8
  %23 = call ptr @copy_attributes_hash(ptr noundef %22)
  %24 = load ptr, ptr %3, align 8
  %25 = getelementptr inbounds nuw %struct._xml_ns_t, ptr %24, i32 0, i32 5
  store ptr %23, ptr %25, align 8
  %26 = call ptr @wmem_epan_scope()
  %27 = call noalias ptr @wmem_map_new(ptr noundef %26, ptr noundef @g_str_hash, ptr noundef @g_str_equal)
  %28 = load ptr, ptr %3, align 8
  %29 = getelementptr inbounds nuw %struct._xml_ns_t, ptr %28, i32 0, i32 6
  store ptr %27, ptr %29, align 8
  %30 = call ptr @g_ptr_array_new()
  %31 = load ptr, ptr %3, align 8
  %32 = getelementptr inbounds nuw %struct._xml_ns_t, ptr %31, i32 0, i32 7
  store ptr %30, ptr %32, align 8
  store i32 0, ptr %4, align 4
  br label %33

33:                                               ; preds = %54, %1
  %34 = load i32, ptr %4, align 4
  %35 = load ptr, ptr %2, align 8
  %36 = getelementptr inbounds nuw %struct._xml_ns_t, ptr %35, i32 0, i32 7
  %37 = load ptr, ptr %36, align 8
  %38 = getelementptr inbounds nuw %struct._GPtrArray, ptr %37, i32 0, i32 1
  %39 = load i32, ptr %38, align 8
  %40 = icmp ult i32 %34, %39
  br i1 %40, label %41, label %57

41:                                               ; preds = %33
  %42 = load ptr, ptr %3, align 8
  %43 = getelementptr inbounds nuw %struct._xml_ns_t, ptr %42, i32 0, i32 7
  %44 = load ptr, ptr %43, align 8
  %45 = load ptr, ptr %2, align 8
  %46 = getelementptr inbounds nuw %struct._xml_ns_t, ptr %45, i32 0, i32 7
  %47 = load ptr, ptr %46, align 8
  %48 = getelementptr inbounds nuw %struct._GPtrArray, ptr %47, i32 0, i32 0
  %49 = load ptr, ptr %48, align 8
  %50 = load i32, ptr %4, align 4
  %51 = zext i32 %50 to i64
  %52 = getelementptr ptr, ptr %49, i64 %51
  %53 = load ptr, ptr %52, align 8
  call void @g_ptr_array_add(ptr noundef %44, ptr noundef %53)
  br label %54

54:                                               ; preds = %41
  %55 = load i32, ptr %4, align 4
  %56 = add i32 %55, 1
  store i32 %56, ptr %4, align 4
  br label %33, !llvm.loop !26

57:                                               ; preds = %33
  %58 = load ptr, ptr %3, align 8
  call void @llvm.lifetime.end.p0(i64 4, ptr %4) #10
  call void @llvm.lifetime.end.p0(i64 8, ptr %3) #10
  ret ptr %58
}