; Function Attrs: null_pointer_is_valid sspstrong uwtable
define internal fastcc noalias noundef ptr @duplicate_element(ptr noundef readonly captures(none) %0) unnamed_addr #4 {
  %2 = tail call ptr @wmem_epan_scope()
  %3 = tail call noalias dereferenceable_or_null(56) ptr @wmem_alloc(ptr noundef %2, i64 noundef 56) #13
  %4 = tail call ptr @wmem_epan_scope()
  %5 = load ptr, ptr %0, align 8
  %6 = tail call noalias ptr @wmem_strdup(ptr noundef %4, ptr noundef %5)
  store ptr %6, ptr %3, align 8
  %7 = getelementptr inbounds nuw i8, ptr %3, i64 16
  store i32 -1, ptr %7, align 8
  %8 = getelementptr inbounds nuw i8, ptr %3, i64 20
  store i32 -1, ptr %8, align 4
  %9 = getelementptr inbounds nuw i8, ptr %3, i64 24
  store i32 -1, ptr %9, align 8
  %10 = getelementptr inbounds nuw i8, ptr %0, i64 32
  %11 = load ptr, ptr %10, align 8
  %12 = tail call ptr @wmem_epan_scope()
  %13 = tail call noalias ptr @wmem_map_new(ptr noundef %12, ptr noundef nonnull @g_str_hash, ptr noundef nonnull @g_str_equal)
  tail call void @wmem_map_foreach(ptr noundef %11, ptr noundef nonnull @copy_attrib_item, ptr noundef %13)
  %14 = getelementptr inbounds nuw i8, ptr %3, i64 32
  store ptr %13, ptr %14, align 8
  %15 = tail call ptr @wmem_epan_scope()
  %16 = tail call noalias ptr @wmem_map_new(ptr noundef %15, ptr noundef nonnull @g_str_hash, ptr noundef nonnull @g_str_equal)
  %17 = getelementptr inbounds nuw i8, ptr %3, i64 40
  store ptr %16, ptr %17, align 8
  %18 = tail call ptr @g_ptr_array_new()
  %19 = getelementptr inbounds nuw i8, ptr %3, i64 48
  store ptr %18, ptr %19, align 8
  %20 = getelementptr inbounds nuw i8, ptr %0, i64 48
  %21 = load ptr, ptr %20, align 8
  %22 = getelementptr inbounds nuw i8, ptr %21, i64 8
  %23 = load i32, ptr %22, align 8
  %.not = icmp eq i32 %23, 0
  br i1 %.not, label %._crit_edge, label %.lr.ph

.lr.ph:                                           ; preds = %1, %.lr.ph
  %indvars.iv = phi i64 [ %indvars.iv.next, %.lr.ph ], [ 0, %1 ]
  %24 = phi ptr [ %28, %.lr.ph ], [ %21, %1 ]
  %25 = load ptr, ptr %24, align 8
  %26 = getelementptr ptr, ptr %25, i64 %indvars.iv
  %27 = load ptr, ptr %26, align 8
  tail call void @g_ptr_array_add(ptr noundef %18, ptr noundef %27)
  %indvars.iv.next = add nuw nsw i64 %indvars.iv, 1
  %28 = load ptr, ptr %20, align 8
  %29 = getelementptr inbounds nuw i8, ptr %28, i64 8
  %30 = load i32, ptr %29, align 8
  %31 = zext i32 %30 to i64
  %32 = icmp samesign ult i64 %indvars.iv.next, %31
  br i1 %32, label %.lr.ph, label %._crit_edge, !llvm.loop !27

._crit_edge:                                      ; preds = %.lr.ph, %1
  ret ptr %3
}